target datalayout = "e-m:e-p270:32:32-p271:32:32-p272:64:64-i64:64-i128:128-f80:128-n8:16:32:64-S128"
target triple = "x86_64-unknown-linux-gnu"

%"class.icu_75::UObject" = type { ptr }
%"class.icu_75::CollationLoader" = type { ptr, ptr, %"class.icu_75::Locale", %"class.icu_75::Locale", [16 x i8], [16 x i8], i32, i8, ptr, ptr, ptr }
%"class.icu_75::Locale" = type <{ %"class.icu_75::UObject", [12 x i8], [6 x i8], [4 x i8], [2 x i8], i32, [4 x i8], ptr, [157 x i8], [3 x i8], ptr, i8, [7 x i8] }>

; Function Attrs: mustprogress nounwind uwtable
define void @_ZN6icu_7515CollationLoaderD2Ev(ptr noundef nonnull align 8 dereferenceable(528) %this) unnamed_addr #0 align 2 personality ptr @__gxx_personality_v0 {
entry:
  %this.addr = alloca ptr, align 8
  store ptr %this, ptr %this.addr, align 8
  %this1 = load ptr, ptr %this.addr, align 8
  %data = getelementptr inbounds %"class.icu_75::CollationLoader", ptr %this1, i32 0, i32 10
  %0 = load ptr, ptr %data, align 8
  invoke void @ures_close_75(ptr noundef %0)
          to label %invoke.cont unwind label %terminate.lpad

invoke.cont:                                      ; preds = %entry
  %collations = getelementptr inbounds %"class.icu_75::CollationLoader", ptr %this1, i32 0, i32 9
  %1 = load ptr, ptr %collations, align 8
  invoke void @ures_close_75(ptr noundef %1)
          to label %invoke.cont2 unwind label %terminate.lpad

invoke.cont2:                                     ; preds = %invoke.cont
  %bundle = getelementptr inbounds %"class.icu_75::CollationLoader", ptr %this1, i32 0, i32 8
  %2 = load ptr, ptr %bundle, align 8
  invoke void @ures_close_75(ptr noundef %2)
          to label %invoke.cont3 unwind label %terminate.lpad

invoke.cont3:                                     ; preds = %invoke.cont2
  %locale = getelementptr inbounds %"class.icu_75::CollationLoader", ptr %this1, i32 0, i32 3
  call void @_ZN6icu_756LocaleD1Ev(ptr noundef nonnull align 8 dereferenceable(217) %locale) #9
  %validLocale = getelementptr inbounds %"class.icu_75::CollationLoader", ptr %this1, i32 0, i32 2
  call void @_ZN6icu_756LocaleD1Ev(ptr noundef nonnull align 8 dereferenceable(217) %validLocale) #9
  ret void

terminate.lpad:                                   ; preds = %invoke.cont2, %invoke.cont, %entry
  %3 = landingpad { ptr, i32 }
          catch ptr null
  %4 = extractvalue { ptr, i32 } %3, 0
  call void @__clang_call_terminate(ptr %4) #11
  unreachable
}