; Function Attrs: mustprogress nounwind uwtable
define void @_ZN6icu_7515CollationLoaderD2Ev(ptr noundef nonnull align 8 dereferenceable(528) %this) unnamed_addr #0 align 2 personality ptr @__gxx_personality_v0 {
entry:
  %data = getelementptr inbounds i8, ptr %this, i64 520
  %0 = load ptr, ptr %data, align 8
  invoke void @ures_close_75(ptr noundef %0)
          to label %invoke.cont unwind label %terminate.lpad

invoke.cont:                                      ; preds = %entry
  %collations = getelementptr inbounds i8, ptr %this, i64 512
  %1 = load ptr, ptr %collations, align 8
  invoke void @ures_close_75(ptr noundef %1)
          to label %invoke.cont2 unwind label %terminate.lpad

invoke.cont2:                                     ; preds = %invoke.cont
  %bundle = getelementptr inbounds i8, ptr %this, i64 504
  %2 = load ptr, ptr %bundle, align 8
  invoke void @ures_close_75(ptr noundef %2)
          to label %invoke.cont3 unwind label %terminate.lpad

invoke.cont3:                                     ; preds = %invoke.cont2
  %locale = getelementptr inbounds i8, ptr %this, i64 240
  tail call void @_ZN6icu_756LocaleD1Ev(ptr noundef nonnull align 8 dereferenceable(217) %locale) #13
  %validLocale = getelementptr inbounds i8, ptr %this, i64 16
  tail call void @_ZN6icu_756LocaleD1Ev(ptr noundef nonnull align 8 dereferenceable(217) %validLocale) #13
  ret void

terminate.lpad:                                   ; preds = %invoke.cont2, %invoke.cont, %entry
  %3 = landingpad { ptr, i32 }
          catch ptr null
  %4 = extractvalue { ptr, i32 } %3, 0
  tail call void @__clang_call_terminate(ptr %4) #15
  unreachable
}